target datalayout = "e-m:e-p270:32:32-p271:32:32-p272:64:64-i64:64-i128:128-f80:128-n8:16:32:64-S128"
target triple = "x86_64-pc-linux-gnu"

%struct.ident_t = type { i32, i32, i32, i32, ptr }
%"class.std::function" = type { %"class.std::_Function_base", ptr }
%"class.std::_Function_base" = type { %"union.std::_Any_data", ptr }
%"union.std::_Any_data" = type { %"union.std::_Nocopy_types" }
%"union.std::_Nocopy_types" = type { { i64, i64 } }
%"class.LightGBM::ObjectiveFunction" = type { ptr }
%"class.LightGBM::BinaryLogloss" = type <{ %"class.LightGBM::ObjectiveFunction", i32, i32, ptr, i8, [7 x i8], double, [2 x i32], [2 x double], ptr, double, %"class.std::function", i8, i8, [6 x i8] }>

@1 = private unnamed_addr constant %struct.ident_t { i32 0, i32 514, i32 0, i32 22, ptr @0 }, align 8
@.gomp_critical_user_.reduction.var = common global [8 x i32] zeroinitializer, align 8
@3 = private unnamed_addr constant %struct.ident_t { i32 0, i32 18, i32 0, i32 22, ptr @0 }, align 8

; Function Attrs: mustprogress nounwind uwtable
define linkonce_odr noundef zeroext i1 @_ZNKSt14_Function_base8_M_emptyEv(ptr noundef nonnull align 8 dereferenceable(24) %0) #7 comdat align 2 {
  %2 = alloca ptr, align 8
  store ptr %0, ptr %2, align 8, !tbaa !109
  %3 = load ptr, ptr %2, align 8
  %4 = getelementptr inbounds nuw %"class.std::_Function_base", ptr %3, i32 0, i32 1
  %5 = load ptr, ptr %4, align 8, !tbaa !111
  %6 = icmp ne ptr %5, null
  %7 = xor i1 %6, true
  ret i1 %7
}

; Function Attrs: mustprogress uwtable
define linkonce_odr noundef zeroext i1 @_ZNKSt8functionIFbfEEclEf(ptr noundef nonnull align 8 dereferenceable(32) %0, float noundef %1) #4 comdat align 2 {
  %3 = alloca ptr, align 8
  %4 = alloca float, align 4
  store ptr %0, ptr %3, align 8, !tbaa !92
  store float %1, ptr %4, align 4, !tbaa !210
  %5 = load ptr, ptr %3, align 8
  %6 = call noundef zeroext i1 @_ZNKSt14_Function_base8_M_emptyEv(ptr noundef nonnull align 8 dereferenceable(24) %5)
  br i1 %6, label %7, label %8

7:                                                ; preds = %2
  call void @_ZSt25__throw_bad_function_callv() #30
  unreachable

8:                                                ; preds = %2
  %9 = getelementptr inbounds nuw %"class.std::function", ptr %5, i32 0, i32 1
  %10 = load ptr, ptr %9, align 8, !tbaa !96
  %11 = getelementptr inbounds nuw %"class.std::_Function_base", ptr %5, i32 0, i32 0
  %12 = call noundef zeroext i1 %10(ptr noundef nonnull align 8 dereferenceable(16) %11, ptr noundef nonnull align 4 dereferenceable(4) %4)
  ret i1 %12
}

; Function Attrs: noinline norecurse nounwind uwtable
define internal void @_ZNK8LightGBM13BinaryLogloss14BoostFromScoreEi.omp_outlined(ptr noalias noundef %0, ptr noalias noundef %1, ptr noundef %2, ptr noundef nonnull align 8 dereferenceable(8) %3, ptr noundef nonnull align 8 dereferenceable(8) %4) #19 personality ptr @__gxx_personality_v0 {
  %6 = alloca ptr, align 8
  %7 = alloca ptr, align 8
  %8 = alloca ptr, align 8
  %9 = alloca ptr, align 8
  %10 = alloca ptr, align 8
  %11 = alloca i32, align 4
  %12 = alloca i32, align 4
  %13 = alloca i32, align 4
  %14 = alloca i32, align 4
  %15 = alloca i32, align 4
  %16 = alloca i32, align 4
  %17 = alloca i32, align 4
  %18 = alloca i32, align 4
  %19 = alloca double, align 8
  %20 = alloca double, align 8
  %21 = alloca i32, align 4
  %22 = alloca [2 x ptr], align 8
  store ptr %0, ptr %6, align 8, !tbaa !193
  store ptr %1, ptr %7, align 8, !tbaa !193
  store ptr %2, ptr %8, align 8, !tbaa !99
  store ptr %3, ptr %9, align 8, !tbaa !191
  store ptr %4, ptr %10, align 8, !tbaa !191
  %23 = load ptr, ptr %8, align 8, !tbaa !99
  %24 = load ptr, ptr %9, align 8, !tbaa !191
  %25 = load ptr, ptr %10, align 8, !tbaa !191
  call void @llvm.lifetime.start.p0(i64 4, ptr %11) #3
  call void @llvm.lifetime.start.p0(i64 4, ptr %12) #3
  %26 = getelementptr inbounds nuw %"class.LightGBM::BinaryLogloss", ptr %23, i32 0, i32 1
  %27 = load i32, ptr %26, align 8, !tbaa !590
  store i32 %27, ptr %12, align 4, !tbaa !141
  call void @llvm.lifetime.start.p0(i64 4, ptr %13) #3
  %28 = load i32, ptr %12, align 4, !tbaa !141
  %29 = sub nsw i32 %28, 0
  %30 = sdiv i32 %29, 1
  %31 = sub nsw i32 %30, 1
  store i32 %31, ptr %13, align 4, !tbaa !141
  call void @llvm.lifetime.start.p0(i64 4, ptr %14) #3
  store i32 0, ptr %14, align 4, !tbaa !141
  call void @llvm.lifetime.end.p0(i64 4, ptr %14) #3
  %32 = load i32, ptr %12, align 4, !tbaa !141
  %33 = icmp slt i32 0, %32
  br i1 %33, label %34, label %113

34:                                               ; preds = %5
  call void @llvm.lifetime.start.p0(i64 4, ptr %15) #3
  store i32 0, ptr %15, align 4, !tbaa !141
  call void @llvm.lifetime.start.p0(i64 4, ptr %16) #3
  %35 = load i32, ptr %13, align 4, !tbaa !141
  store i32 %35, ptr %16, align 4, !tbaa !141
  call void @llvm.lifetime.start.p0(i64 4, ptr %17) #3
  store i32 1, ptr %17, align 4, !tbaa !141
  call void @llvm.lifetime.start.p0(i64 4, ptr %18) #3
  store i32 0, ptr %18, align 4, !tbaa !141
  call void @llvm.lifetime.start.p0(i64 8, ptr %19) #3
  store double 0.000000e+00, ptr %19, align 8, !tbaa !194
  call void @llvm.lifetime.start.p0(i64 8, ptr %20) #3
  store double 0.000000e+00, ptr %20, align 8, !tbaa !194
  call void @llvm.lifetime.start.p0(i64 4, ptr %21) #3
  %36 = load ptr, ptr %6, align 8
  %37 = load i32, ptr %36, align 4, !tbaa !141
  call void @__kmpc_for_static_init_4(ptr @1, i32 %37, i32 34, ptr %18, ptr %15, ptr %16, ptr %17, i32 1, i32 1)
  %38 = load i32, ptr %16, align 4, !tbaa !141
  %39 = load i32, ptr %13, align 4, !tbaa !141
  %40 = icmp sgt i32 %38, %39
  br i1 %40, label %41, label %43

41:                                               ; preds = %34
  %42 = load i32, ptr %13, align 4, !tbaa !141
  br label %45

43:                                               ; preds = %34
  %44 = load i32, ptr %16, align 4, !tbaa !141
  br label %45

45:                                               ; preds = %43, %41
  %46 = phi i32 [ %42, %41 ], [ %44, %43 ]
  store i32 %46, ptr %16, align 4, !tbaa !141
  %47 = load i32, ptr %15, align 4, !tbaa !141
  store i32 %47, ptr %11, align 4, !tbaa !141
  br label %48

48:                                               ; preds = %88, %45
  %49 = load i32, ptr %11, align 4, !tbaa !141
  %50 = load i32, ptr %16, align 4, !tbaa !141
  %51 = icmp sle i32 %49, %50
  br i1 %51, label %53, label %52

52:                                               ; preds = %48
  br label %91

53:                                               ; preds = %48
  %54 = load i32, ptr %11, align 4, !tbaa !141
  %55 = mul nsw i32 %54, 1
  %56 = add nsw i32 0, %55
  store i32 %56, ptr %21, align 4, !tbaa !141
  %57 = getelementptr inbounds nuw %"class.LightGBM::BinaryLogloss", ptr %23, i32 0, i32 11
  %58 = getelementptr inbounds nuw %"class.LightGBM::BinaryLogloss", ptr %23, i32 0, i32 3
  %59 = load ptr, ptr %58, align 8, !tbaa !591
  %60 = load i32, ptr %21, align 4, !tbaa !141
  %61 = sext i32 %60 to i64
  %62 = getelementptr inbounds float, ptr %59, i64 %61
  %63 = load float, ptr %62, align 4, !tbaa !210
  %64 = invoke noundef zeroext i1 @_ZNKSt8functionIFbfEEclEf(ptr noundef nonnull align 8 dereferenceable(32) %57, float noundef %63)
          to label %65 unwind label %114

65:                                               ; preds = %53
  %66 = zext i1 %64 to i32
  %67 = sitofp i32 %66 to float
  %68 = getelementptr inbounds nuw %"class.LightGBM::BinaryLogloss", ptr %23, i32 0, i32 9
  %69 = load ptr, ptr %68, align 8, !tbaa !592
  %70 = load i32, ptr %21, align 4, !tbaa !141
  %71 = sext i32 %70 to i64
  %72 = getelementptr inbounds float, ptr %69, i64 %71
  %73 = load float, ptr %72, align 4, !tbaa !210
  %74 = fmul float %67, %73
  %75 = fpext float %74 to double
  %76 = load double, ptr %19, align 8, !tbaa !194
  %77 = fadd double %76, %75
  store double %77, ptr %19, align 8, !tbaa !194
  %78 = getelementptr inbounds nuw %"class.LightGBM::BinaryLogloss", ptr %23, i32 0, i32 9
  %79 = load ptr, ptr %78, align 8, !tbaa !592
  %80 = load i32, ptr %21, align 4, !tbaa !141
  %81 = sext i32 %80 to i64
  %82 = getelementptr inbounds float, ptr %79, i64 %81
  %83 = load float, ptr %82, align 4, !tbaa !210
  %84 = fpext float %83 to double
  %85 = load double, ptr %20, align 8, !tbaa !194
  %86 = fadd double %85, %84
  store double %86, ptr %20, align 8, !tbaa !194
  br label %87

87:                                               ; preds = %65
  br label %88

88:                                               ; preds = %87
  %89 = load i32, ptr %11, align 4, !tbaa !141
  %90 = add nsw i32 %89, 1
  store i32 %90, ptr %11, align 4, !tbaa !141
  br label %48

91:                                               ; preds = %52
  br label %92

92:                                               ; preds = %91
  %93 = load ptr, ptr %6, align 8
  %94 = load i32, ptr %93, align 4, !tbaa !141
  call void @__kmpc_for_static_fini(ptr @1, i32 %94)
  %95 = getelementptr inbounds [2 x ptr], ptr %22, i64 0, i64 0
  store ptr %19, ptr %95, align 8
  %96 = getelementptr inbounds [2 x ptr], ptr %22, i64 0, i64 1
  store ptr %20, ptr %96, align 8
  %97 = load ptr, ptr %6, align 8
  %98 = load i32, ptr %97, align 4, !tbaa !141
  %99 = call i32 @__kmpc_reduce_nowait(ptr @3, i32 %98, i32 2, i64 16, ptr %22, ptr @_ZNK8LightGBM13BinaryLogloss14BoostFromScoreEi.omp_outlined.omp.reduction.reduction_func, ptr @.gomp_critical_user_.reduction.var)
  switch i32 %99, label %112 [
    i32 1, label %100
    i32 2, label %107
  ]

100:                                              ; preds = %92
  %101 = load double, ptr %24, align 8, !tbaa !194
  %102 = load double, ptr %19, align 8, !tbaa !194
  %103 = fadd double %101, %102
  store double %103, ptr %24, align 8, !tbaa !194
  %104 = load double, ptr %25, align 8, !tbaa !194
  %105 = load double, ptr %20, align 8, !tbaa !194
  %106 = fadd double %104, %105
  store double %106, ptr %25, align 8, !tbaa !194
  call void @__kmpc_end_reduce_nowait(ptr @3, i32 %98, ptr @.gomp_critical_user_.reduction.var)
  br label %112

107:                                              ; preds = %92
  %108 = load double, ptr %19, align 8, !tbaa !194
  %109 = atomicrmw fadd ptr %24, double %108 monotonic, align 8
  %110 = load double, ptr %20, align 8, !tbaa !194
  %111 = atomicrmw fadd ptr %25, double %110 monotonic, align 8
  br label %112

112:                                              ; preds = %107, %100, %92
  call void @llvm.lifetime.end.p0(i64 4, ptr %21) #3
  call void @llvm.lifetime.end.p0(i64 8, ptr %20) #3
  call void @llvm.lifetime.end.p0(i64 8, ptr %19) #3
  call void @llvm.lifetime.end.p0(i64 4, ptr %18) #3
  call void @llvm.lifetime.end.p0(i64 4, ptr %17) #3
  call void @llvm.lifetime.end.p0(i64 4, ptr %16) #3
  call void @llvm.lifetime.end.p0(i64 4, ptr %15) #3
  br label %113

113:                                              ; preds = %112, %5
  call void @llvm.lifetime.end.p0(i64 4, ptr %13) #3
  call void @llvm.lifetime.end.p0(i64 4, ptr %12) #3
  call void @llvm.lifetime.end.p0(i64 4, ptr %11) #3
  ret void

114:                                              ; preds = %53
  %115 = landingpad { ptr, i32 }
          catch ptr null
  %116 = extractvalue { ptr, i32 } %115, 0
  call void @__clang_call_terminate(ptr %116) #29
  unreachable
}