; Function Attrs: noinline norecurse nounwind uwtable
define internal void @_ZNK8LightGBM13BinaryLogloss14BoostFromScoreEi.omp_outlined(ptr noalias noundef readonly captures(none) %0, ptr noalias readnone captures(none) %1, ptr noundef %2, ptr noundef nonnull align 8 captures(none) dereferenceable(8) %3, ptr noundef nonnull align 8 captures(none) dereferenceable(8) %4) #17 personality ptr @__gxx_personality_v0 {
  %6 = alloca float, align 4
  %7 = alloca i32, align 4
  %8 = alloca i32, align 4
  %9 = alloca i32, align 4
  %10 = alloca i32, align 4
  %11 = alloca double, align 8
  %12 = alloca double, align 8
  %13 = alloca [2 x ptr], align 8
  %14 = getelementptr inbounds nuw i8, ptr %2, i64 8
  %15 = load i32, ptr %14, align 8, !tbaa !358
  %16 = icmp sgt i32 %15, 0
  br i1 %16, label %17, label %67

17:                                               ; preds = %5
  %18 = add nsw i32 %15, -1
  call void @llvm.lifetime.start.p0(i64 4, ptr nonnull %7) #15
  store i32 0, ptr %7, align 4, !tbaa !127
  call void @llvm.lifetime.start.p0(i64 4, ptr nonnull %8) #15
  store i32 %18, ptr %8, align 4, !tbaa !127
  call void @llvm.lifetime.start.p0(i64 4, ptr nonnull %9) #15
  store i32 1, ptr %9, align 4, !tbaa !127
  call void @llvm.lifetime.start.p0(i64 4, ptr nonnull %10) #15
  store i32 0, ptr %10, align 4, !tbaa !127
  call void @llvm.lifetime.start.p0(i64 8, ptr nonnull %11) #15
  store double 0.000000e+00, ptr %11, align 8, !tbaa !153
  call void @llvm.lifetime.start.p0(i64 8, ptr nonnull %12) #15
  store double 0.000000e+00, ptr %12, align 8, !tbaa !153
  %19 = load i32, ptr %0, align 4, !tbaa !127
  call void @__kmpc_for_static_init_4(ptr nonnull @1, i32 %19, i32 34, ptr nonnull %10, ptr nonnull %7, ptr nonnull %8, ptr nonnull %9, i32 1, i32 1)
  %20 = load i32, ptr %8, align 4, !tbaa !127
  %21 = call i32 @llvm.smin.i32(i32 %20, i32 %18)
  store i32 %21, ptr %8, align 4, !tbaa !127
  %22 = load i32, ptr %7, align 4, !tbaa !127
  %.not17 = icmp sgt i32 %22, %21
  br i1 %.not17, label %._crit_edge, label %.lr.ph

.lr.ph:                                           ; preds = %17
  %23 = getelementptr inbounds nuw i8, ptr %2, i64 16
  %24 = getelementptr inbounds nuw i8, ptr %2, i64 96
  %25 = getelementptr inbounds nuw i8, ptr %2, i64 80
  %26 = getelementptr inbounds nuw i8, ptr %2, i64 104
  %27 = getelementptr inbounds nuw i8, ptr %2, i64 64
  %28 = sext i32 %22 to i64
  br label %29

29:                                               ; preds = %.lr.ph, %40
  %30 = phi double [ 0.000000e+00, %.lr.ph ], [ %49, %40 ]
  %31 = phi double [ 0.000000e+00, %.lr.ph ], [ %47, %40 ]
  %indvars.iv = phi i64 [ %28, %.lr.ph ], [ %indvars.iv.next, %40 ]
  %32 = load ptr, ptr %23, align 8, !tbaa !359
  %33 = getelementptr inbounds float, ptr %32, i64 %indvars.iv
  %34 = load float, ptr %33, align 4, !tbaa !175
  call void @llvm.lifetime.start.p0(i64 4, ptr nonnull %6)
  store float %34, ptr %6, align 4, !tbaa !175
  %35 = load ptr, ptr %24, align 8, !tbaa !73
  %.not.i.i = icmp eq ptr %35, null
  br i1 %.not.i.i, label %36, label %37

36:                                               ; preds = %29
  invoke void @_ZSt25__throw_bad_function_callv() #38
          to label %.noexc unwind label %.loopexit.split-lp

.noexc:                                           ; preds = %36
  unreachable

37:                                               ; preds = %29
  %38 = load ptr, ptr %26, align 8, !tbaa !105
  %39 = invoke noundef zeroext i1 %38(ptr noundef nonnull align 8 dereferenceable(32) %25, ptr noundef nonnull align 4 dereferenceable(4) %6)
          to label %40 unwind label %.loopexit

40:                                               ; preds = %37
  call void @llvm.lifetime.end.p0(i64 4, ptr nonnull %6)
  %41 = uitofp i1 %39 to float
  %42 = load ptr, ptr %27, align 8, !tbaa !360
  %43 = getelementptr inbounds float, ptr %42, i64 %indvars.iv
  %44 = load float, ptr %43, align 4, !tbaa !175
  %45 = fmul float %44, %41
  %46 = fpext float %45 to double
  %47 = fadd double %31, %46
  store double %47, ptr %11, align 8, !tbaa !153
  %48 = fpext float %44 to double
  %49 = fadd double %30, %48
  store double %49, ptr %12, align 8, !tbaa !153
  %indvars.iv.next = add nsw i64 %indvars.iv, 1
  %50 = load i32, ptr %8, align 4, !tbaa !127
  %51 = sext i32 %50 to i64
  %.not.not = icmp slt i64 %indvars.iv, %51
  br i1 %.not.not, label %29, label %._crit_edge

._crit_edge:                                      ; preds = %40, %17
  call void @__kmpc_for_static_fini(ptr nonnull @1, i32 %19)
  store ptr %11, ptr %13, align 8
  %52 = getelementptr inbounds nuw i8, ptr %13, i64 8
  store ptr %12, ptr %52, align 8
  %53 = call i32 @__kmpc_reduce_nowait(ptr nonnull @3, i32 %19, i32 2, i64 16, ptr nonnull %13, ptr nonnull @_ZNK8LightGBM13BinaryLogloss14BoostFromScoreEi.omp_outlined.omp.reduction.reduction_func, ptr nonnull @.gomp_critical_user_.reduction.var)
  switch i32 %53, label %66 [
    i32 1, label %54
    i32 2, label %61
  ]

54:                                               ; preds = %._crit_edge
  %55 = load double, ptr %3, align 8, !tbaa !153
  %56 = load double, ptr %11, align 8, !tbaa !153
  %57 = fadd double %55, %56
  store double %57, ptr %3, align 8, !tbaa !153
  %58 = load double, ptr %4, align 8, !tbaa !153
  %59 = load double, ptr %12, align 8, !tbaa !153
  %60 = fadd double %58, %59
  store double %60, ptr %4, align 8, !tbaa !153
  call void @__kmpc_end_reduce_nowait(ptr nonnull @3, i32 %19, ptr nonnull @.gomp_critical_user_.reduction.var)
  br label %66

61:                                               ; preds = %._crit_edge
  %62 = load double, ptr %11, align 8, !tbaa !153
  %63 = atomicrmw fadd ptr %3, double %62 monotonic, align 8
  %64 = load double, ptr %12, align 8, !tbaa !153
  %65 = atomicrmw fadd ptr %4, double %64 monotonic, align 8
  br label %66

66:                                               ; preds = %61, %54, %._crit_edge
  call void @llvm.lifetime.end.p0(i64 8, ptr nonnull %12) #15
  call void @llvm.lifetime.end.p0(i64 8, ptr nonnull %11) #15
  call void @llvm.lifetime.end.p0(i64 4, ptr nonnull %10) #15
  call void @llvm.lifetime.end.p0(i64 4, ptr nonnull %9) #15
  call void @llvm.lifetime.end.p0(i64 4, ptr nonnull %8) #15
  call void @llvm.lifetime.end.p0(i64 4, ptr nonnull %7) #15
  br label %67

67:                                               ; preds = %66, %5
  ret void

.loopexit:                                        ; preds = %37
  %lpad.loopexit = landingpad { ptr, i32 }
          catch ptr null
  br label %68

.loopexit.split-lp:                               ; preds = %36
  %lpad.loopexit.split-lp = landingpad { ptr, i32 }
          catch ptr null
  br label %68

68:                                               ; preds = %.loopexit.split-lp, %.loopexit
  %lpad.phi = phi { ptr, i32 } [ %lpad.loopexit, %.loopexit ], [ %lpad.loopexit.split-lp, %.loopexit.split-lp ]
  %69 = extractvalue { ptr, i32 } %lpad.phi, 0
  call void @__clang_call_terminate(ptr %69) #37
  unreachable
}